target datalayout = "e-m:e-p270:32:32-p271:32:32-p272:64:64-i64:64-i128:128-f80:128-n8:16:32:64-S128"
target triple = "x86_64-pc-linux-gnu"

%struct._zval_struct = type { %union._zend_value, %union.anon, %union.anon.2 }
%union._zend_value = type { i64 }
%union.anon = type { i32 }
%union.anon.2 = type { i32 }
%struct._zend_refcounted_h = type { i32, %union.anon.6 }
%union.anon.6 = type { i32 }
%struct._pdo_dbh_t = type { ptr, ptr, ptr, ptr, i32, ptr, i64, [6 x i8], i32, i32, i32, ptr, i64, i32, [2 x ptr], ptr, ptr, %struct._zval_struct, ptr, %struct._zval_struct, i32 }
%struct._pdo_stmt_t = type { ptr, ptr, i32, i32, ptr, %struct._zval_struct, ptr, ptr, ptr, ptr, i64, ptr, ptr, [6 x i8], %struct._zval_struct, i64, i32, %union.anon.3, ptr, %struct._zend_object }
%union.anon.3 = type { %struct.anon.5 }
%struct.anon.5 = type { %struct._zval_struct, %struct._zend_fcall_info, %struct._zend_fcall_info_cache, %struct._zval_struct, %struct._zval_struct, ptr }
%struct._zend_fcall_info = type { i64, %struct._zval_struct, ptr, ptr, ptr, i32, ptr }
%struct._zend_fcall_info_cache = type { ptr, ptr, ptr, ptr, ptr }
%struct._zend_object = type { %struct._zend_refcounted_h, i32, ptr, ptr, ptr, [1 x %struct._zval_struct] }
%struct.pdo_sqlite_db_handle = type { ptr, %struct.pdo_sqlite_error_info, ptr, ptr }
%struct.pdo_sqlite_error_info = type { ptr, i32, i32, ptr }

@.str = private unnamed_addr constant [6 x i8] c"00000\00", align 1
@.str.1 = private unnamed_addr constant [6 x i8] c"42S02\00", align 1
@.str.2 = private unnamed_addr constant [6 x i8] c"01002\00", align 1
@.str.3 = private unnamed_addr constant [6 x i8] c"HYC00\00", align 1
@.str.4 = private unnamed_addr constant [6 x i8] c"22001\00", align 1
@.str.5 = private unnamed_addr constant [6 x i8] c"23000\00", align 1
@.str.6 = private unnamed_addr constant [6 x i8] c"HY000\00", align 1

; Function Attrs: nounwind uwtable
define hidden i32 @_pdo_sqlite_error(ptr noundef %0, ptr noundef %1, ptr noundef %2, i32 noundef %3) #0 {
  %5 = alloca i32, align 4
  %6 = alloca ptr, align 8
  %7 = alloca ptr, align 8
  %8 = alloca ptr, align 8
  %9 = alloca i32, align 4
  %10 = alloca ptr, align 8
  %11 = alloca ptr, align 8
  %12 = alloca ptr, align 8
  store ptr %0, ptr %6, align 8
  store ptr %1, ptr %7, align 8
  store ptr %2, ptr %8, align 8
  store i32 %3, ptr %9, align 4
  %13 = load ptr, ptr %6, align 8
  %14 = getelementptr inbounds %struct._pdo_dbh_t, ptr %13, i32 0, i32 1
  %15 = load ptr, ptr %14, align 8
  store ptr %15, ptr %10, align 8
  %16 = load ptr, ptr %7, align 8
  %17 = icmp ne ptr %16, null
  br i1 %17, label %18, label %21

18:                                               ; preds = %4
  %19 = load ptr, ptr %7, align 8
  %20 = getelementptr inbounds %struct._pdo_stmt_t, ptr %19, i32 0, i32 13
  br label %24

21:                                               ; preds = %4
  %22 = load ptr, ptr %6, align 8
  %23 = getelementptr inbounds %struct._pdo_dbh_t, ptr %22, i32 0, i32 7
  br label %24

24:                                               ; preds = %21, %18
  %25 = phi ptr [ %20, %18 ], [ %23, %21 ]
  store ptr %25, ptr %11, align 8
  %26 = load ptr, ptr %10, align 8
  %27 = getelementptr inbounds %struct.pdo_sqlite_db_handle, ptr %26, i32 0, i32 1
  store ptr %27, ptr %12, align 8
  %28 = load ptr, ptr %10, align 8
  %29 = getelementptr inbounds %struct.pdo_sqlite_db_handle, ptr %28, i32 0, i32 0
  %30 = load ptr, ptr %29, align 8
  %31 = call i32 @sqlite3_errcode(ptr noundef %30)
  %32 = load ptr, ptr %12, align 8
  %33 = getelementptr inbounds %struct.pdo_sqlite_error_info, ptr %32, i32 0, i32 2
  store i32 %31, ptr %33, align 4
  %34 = load ptr, ptr %8, align 8
  %35 = load ptr, ptr %12, align 8
  %36 = getelementptr inbounds %struct.pdo_sqlite_error_info, ptr %35, i32 0, i32 0
  store ptr %34, ptr %36, align 8
  %37 = load i32, ptr %9, align 4
  %38 = load ptr, ptr %12, align 8
  %39 = getelementptr inbounds %struct.pdo_sqlite_error_info, ptr %38, i32 0, i32 1
  store i32 %37, ptr %39, align 8
  %40 = load ptr, ptr %12, align 8
  %41 = getelementptr inbounds %struct.pdo_sqlite_error_info, ptr %40, i32 0, i32 2
  %42 = load i32, ptr %41, align 4
  %43 = icmp ne i32 %42, 0
  br i1 %43, label %44, label %86

44:                                               ; preds = %24
  %45 = load ptr, ptr %12, align 8
  %46 = getelementptr inbounds %struct.pdo_sqlite_error_info, ptr %45, i32 0, i32 3
  %47 = load ptr, ptr %46, align 8
  %48 = icmp ne ptr %47, null
  br i1 %48, label %49, label %64

49:                                               ; preds = %44
  %50 = load ptr, ptr %6, align 8
  %51 = getelementptr inbounds %struct._pdo_dbh_t, ptr %50, i32 0, i32 4
  %52 = load i32, ptr %51, align 8
  %53 = and i32 %52, 1
  %54 = icmp ne i32 %53, 0
  br i1 %54, label %55, label %59

55:                                               ; preds = %49
  %56 = load ptr, ptr %12, align 8
  %57 = getelementptr inbounds %struct.pdo_sqlite_error_info, ptr %56, i32 0, i32 3
  %58 = load ptr, ptr %57, align 8
  call void @free(ptr noundef %58) #9
  br label %63

59:                                               ; preds = %49
  %60 = load ptr, ptr %12, align 8
  %61 = getelementptr inbounds %struct.pdo_sqlite_error_info, ptr %60, i32 0, i32 3
  %62 = load ptr, ptr %61, align 8
  call void @_efree(ptr noundef %62)
  br label %63

63:                                               ; preds = %59, %55
  br label %64

64:                                               ; preds = %63, %44
  %65 = load ptr, ptr %6, align 8
  %66 = getelementptr inbounds %struct._pdo_dbh_t, ptr %65, i32 0, i32 4
  %67 = load i32, ptr %66, align 8
  %68 = and i32 %67, 1
  %69 = icmp ne i32 %68, 0
  br i1 %69, label %70, label %76

70:                                               ; preds = %64
  %71 = load ptr, ptr %10, align 8
  %72 = getelementptr inbounds %struct.pdo_sqlite_db_handle, ptr %71, i32 0, i32 0
  %73 = load ptr, ptr %72, align 8
  %74 = call ptr @sqlite3_errmsg(ptr noundef %73)
  %75 = call noalias ptr @__zend_strdup(ptr noundef %74)
  br label %82

76:                                               ; preds = %64
  %77 = load ptr, ptr %10, align 8
  %78 = getelementptr inbounds %struct.pdo_sqlite_db_handle, ptr %77, i32 0, i32 0
  %79 = load ptr, ptr %78, align 8
  %80 = call ptr @sqlite3_errmsg(ptr noundef %79)
  %81 = call noalias ptr @_estrdup(ptr noundef %80)
  br label %82

82:                                               ; preds = %76, %70
  %83 = phi ptr [ %75, %70 ], [ %81, %76 ]
  %84 = load ptr, ptr %12, align 8
  %85 = getelementptr inbounds %struct.pdo_sqlite_error_info, ptr %84, i32 0, i32 3
  store ptr %83, ptr %85, align 8
  br label %90

86:                                               ; preds = %24
  %87 = load ptr, ptr %11, align 8
  %88 = getelementptr inbounds [6 x i8], ptr %87, i64 0, i64 0
  %89 = call ptr @strncpy(ptr noundef %88, ptr noundef @.str, i64 noundef 6) #9
  store i32 0, ptr %5, align 4
  br label %136

90:                                               ; preds = %82
  %91 = load ptr, ptr %12, align 8
  %92 = getelementptr inbounds %struct.pdo_sqlite_error_info, ptr %91, i32 0, i32 2
  %93 = load i32, ptr %92, align 4
  switch i32 %93, label %115 [
    i32 12, label %94
    i32 9, label %98
    i32 22, label %102
    i32 18, label %106
    i32 19, label %110
    i32 1, label %114
  ]

94:                                               ; preds = %90
  %95 = load ptr, ptr %11, align 8
  %96 = getelementptr inbounds [6 x i8], ptr %95, i64 0, i64 0
  %97 = call ptr @strncpy(ptr noundef %96, ptr noundef @.str.1, i64 noundef 6) #9
  br label %119

98:                                               ; preds = %90
  %99 = load ptr, ptr %11, align 8
  %100 = getelementptr inbounds [6 x i8], ptr %99, i64 0, i64 0
  %101 = call ptr @strncpy(ptr noundef %100, ptr noundef @.str.2, i64 noundef 6) #9
  br label %119

102:                                              ; preds = %90
  %103 = load ptr, ptr %11, align 8
  %104 = getelementptr inbounds [6 x i8], ptr %103, i64 0, i64 0
  %105 = call ptr @strncpy(ptr noundef %104, ptr noundef @.str.3, i64 noundef 6) #9
  br label %119

106:                                              ; preds = %90
  %107 = load ptr, ptr %11, align 8
  %108 = getelementptr inbounds [6 x i8], ptr %107, i64 0, i64 0
  %109 = call ptr @strncpy(ptr noundef %108, ptr noundef @.str.4, i64 noundef 6) #9
  br label %119

110:                                              ; preds = %90
  %111 = load ptr, ptr %11, align 8
  %112 = getelementptr inbounds [6 x i8], ptr %111, i64 0, i64 0
  %113 = call ptr @strncpy(ptr noundef %112, ptr noundef @.str.5, i64 noundef 6) #9
  br label %119

114:                                              ; preds = %90
  br label %115

115:                                              ; preds = %114, %90
  %116 = load ptr, ptr %11, align 8
  %117 = getelementptr inbounds [6 x i8], ptr %116, i64 0, i64 0
  %118 = call ptr @strncpy(ptr noundef %117, ptr noundef @.str.6, i64 noundef 6) #9
  br label %119

119:                                              ; preds = %115, %110, %106, %102, %98, %94
  %120 = load ptr, ptr %6, align 8
  %121 = getelementptr inbounds %struct._pdo_dbh_t, ptr %120, i32 0, i32 0
  %122 = load ptr, ptr %121, align 8
  %123 = icmp ne ptr %122, null
  br i1 %123, label %132, label %124

124:                                              ; preds = %119
  %125 = load ptr, ptr %12, align 8
  %126 = getelementptr inbounds %struct.pdo_sqlite_error_info, ptr %125, i32 0, i32 2
  %127 = load i32, ptr %126, align 4
  %128 = load ptr, ptr %12, align 8
  %129 = getelementptr inbounds %struct.pdo_sqlite_error_info, ptr %128, i32 0, i32 3
  %130 = load ptr, ptr %129, align 8
  %131 = load ptr, ptr %11, align 8
  call void @pdo_throw_exception(i32 noundef %127, ptr noundef %130, ptr noundef %131)
  br label %132

132:                                              ; preds = %124, %119
  %133 = load ptr, ptr %12, align 8
  %134 = getelementptr inbounds %struct.pdo_sqlite_error_info, ptr %133, i32 0, i32 2
  %135 = load i32, ptr %134, align 4
  store i32 %135, ptr %5, align 4
  br label %136

136:                                              ; preds = %132, %86
  %137 = load i32, ptr %5, align 4
  ret i32 %137
}