; Function Attrs: nounwind uwtable
define hidden i32 @_pdo_sqlite_error(ptr noundef %0, ptr noundef %1, ptr noundef %2, i32 noundef %3) local_unnamed_addr #0 {
  %5 = getelementptr inbounds i8, ptr %0, i64 8
  %6 = load ptr, ptr %5, align 8
  %.not = icmp eq ptr %1, null
  %7 = getelementptr inbounds i8, ptr %1, i64 104
  %8 = getelementptr inbounds i8, ptr %0, i64 56
  %9 = select i1 %.not, ptr %8, ptr %7
  %10 = getelementptr inbounds i8, ptr %6, i64 8
  %11 = load ptr, ptr %6, align 8
  %12 = tail call i32 @sqlite3_errcode(ptr noundef %11) #11
  %13 = getelementptr inbounds i8, ptr %6, i64 20
  store i32 %12, ptr %13, align 4
  store ptr %2, ptr %10, align 8
  %14 = getelementptr inbounds i8, ptr %6, i64 16
  store i32 %3, ptr %14, align 8
  %.not34 = icmp eq i32 %12, 0
  br i1 %.not34, label %37, label %15

15:                                               ; preds = %4
  %16 = getelementptr inbounds i8, ptr %6, i64 24
  %17 = load ptr, ptr %16, align 8
  %.not35 = icmp eq ptr %17, null
  br i1 %.not35, label %24, label %18

18:                                               ; preds = %15
  %19 = getelementptr inbounds i8, ptr %0, i64 32
  %20 = load i32, ptr %19, align 8
  %21 = and i32 %20, 1
  %.not36 = icmp eq i32 %21, 0
  br i1 %.not36, label %23, label %22

22:                                               ; preds = %18
  tail call void @free(ptr noundef nonnull %17) #11
  br label %24

23:                                               ; preds = %18
  tail call void @_efree(ptr noundef nonnull %17) #11
  br label %24

24:                                               ; preds = %22, %23, %15
  %25 = getelementptr inbounds i8, ptr %0, i64 32
  %26 = load i32, ptr %25, align 8
  %27 = and i32 %26, 1
  %.not37 = icmp eq i32 %27, 0
  %28 = load ptr, ptr %6, align 8
  %29 = tail call ptr @sqlite3_errmsg(ptr noundef %28) #11
  br i1 %.not37, label %32, label %30

30:                                               ; preds = %24
  %31 = tail call noalias ptr @__zend_strdup(ptr noundef %29) #11
  br label %34

32:                                               ; preds = %24
  %33 = tail call noalias ptr @_estrdup(ptr noundef %29) #11
  br label %34

34:                                               ; preds = %32, %30
  %35 = phi ptr [ %31, %30 ], [ %33, %32 ]
  store ptr %35, ptr %16, align 8
  %36 = load i32, ptr %13, align 4
  switch i32 %36, label %43 [
    i32 12, label %38
    i32 9, label %39
    i32 22, label %40
    i32 18, label %41
    i32 19, label %42
  ]

37:                                               ; preds = %4
  tail call void @llvm.memcpy.p0.p0.i64(ptr noundef nonnull align 1 dereferenceable(6) %9, ptr noundef nonnull align 1 dereferenceable(6) @.str, i64 noundef 6, i1 false) #11
  br label %51

38:                                               ; preds = %34
  tail call void @llvm.memcpy.p0.p0.i64(ptr noundef nonnull align 1 dereferenceable(6) %9, ptr noundef nonnull align 1 dereferenceable(6) @.str.1, i64 noundef 6, i1 false) #11
  br label %44

39:                                               ; preds = %34
  tail call void @llvm.memcpy.p0.p0.i64(ptr noundef nonnull align 1 dereferenceable(6) %9, ptr noundef nonnull align 1 dereferenceable(6) @.str.2, i64 noundef 6, i1 false) #11
  br label %44

40:                                               ; preds = %34
  tail call void @llvm.memcpy.p0.p0.i64(ptr noundef nonnull align 1 dereferenceable(6) %9, ptr noundef nonnull align 1 dereferenceable(6) @.str.3, i64 noundef 6, i1 false) #11
  br label %44

41:                                               ; preds = %34
  tail call void @llvm.memcpy.p0.p0.i64(ptr noundef nonnull align 1 dereferenceable(6) %9, ptr noundef nonnull align 1 dereferenceable(6) @.str.4, i64 noundef 6, i1 false) #11
  br label %44

42:                                               ; preds = %34
  tail call void @llvm.memcpy.p0.p0.i64(ptr noundef nonnull align 1 dereferenceable(6) %9, ptr noundef nonnull align 1 dereferenceable(6) @.str.5, i64 noundef 6, i1 false) #11
  br label %44

43:                                               ; preds = %34
  tail call void @llvm.memcpy.p0.p0.i64(ptr noundef nonnull align 1 dereferenceable(6) %9, ptr noundef nonnull align 1 dereferenceable(6) @.str.6, i64 noundef 6, i1 false) #11
  br label %44

44:                                               ; preds = %43, %42, %41, %40, %39, %38
  %45 = load ptr, ptr %0, align 8
  %.not38 = icmp eq ptr %45, null
  br i1 %.not38, label %46, label %49

46:                                               ; preds = %44
  %47 = load i32, ptr %13, align 4
  %48 = load ptr, ptr %16, align 8
  tail call void @pdo_throw_exception(i32 noundef %47, ptr noundef %48, ptr noundef nonnull %9) #11
  br label %49

49:                                               ; preds = %46, %44
  %50 = load i32, ptr %13, align 4
  br label %51

51:                                               ; preds = %49, %37
  %.0 = phi i32 [ %50, %49 ], [ 0, %37 ]
  ret i32 %.0
}